; Function Attrs: mustprogress nofree norecurse nosync nounwind willreturn memory(argmem: read) uwtable
define ptr @ossl_quic_channel_get_terminate_cause(ptr noundef readonly captures(ret: address, provenance) %0) local_unnamed_addr #6 {
  %2 = getelementptr i8, ptr %0, i64 1568
  %.val.i = load i64, ptr %2, align 8
  %3 = and i64 %.val.i, 6
  %narrow.i.not.i = icmp ne i64 %3, 2
  %4 = and i64 %.val.i, 7
  %5 = icmp ne i64 %4, 4
  %narrow.i.not = and i1 %narrow.i.not.i, %5
  %6 = getelementptr inbounds nuw i8, ptr %0, i64 1472
  %7 = select i1 %narrow.i.not, ptr null, ptr %6
  ret ptr %7
}